target datalayout = "e-m:e-p270:32:32-p271:32:32-p272:64:64-i64:64-i128:128-f80:128-n8:16:32:64-S128"
target triple = "x86_64-pc-linux-gnu"

; Function Attrs: nounwind uwtable
define i32 @Gia_ManLatest(ptr noundef %0, i32 noundef %1, i32 noundef %2, i32 noundef %3, i32 noundef %4) #0 {
  %6 = alloca ptr, align 8
  %7 = alloca i32, align 4
  %8 = alloca i32, align 4
  %9 = alloca i32, align 4
  %10 = alloca i32, align 4
  %11 = alloca i32, align 4
  %12 = alloca i32, align 4
  %13 = alloca i32, align 4
  store ptr %0, ptr %6, align 8, !tbaa !10
  store i32 %1, ptr %7, align 4, !tbaa !8
  store i32 %2, ptr %8, align 4, !tbaa !8
  store i32 %3, ptr %9, align 4, !tbaa !8
  store i32 %4, ptr %10, align 4, !tbaa !8
  call void @llvm.lifetime.start.p0(i64 4, ptr %11) #12
  call void @llvm.lifetime.start.p0(i64 4, ptr %12) #12
  store i32 -1, ptr %12, align 4, !tbaa !8
  call void @llvm.lifetime.start.p0(i64 4, ptr %13) #12
  store i32 -1, ptr %13, align 4, !tbaa !8
  store i32 0, ptr %11, align 4, !tbaa !8
  br label %14

14:                                               ; preds = %46, %5
  %15 = load i32, ptr %11, align 4, !tbaa !8
  %16 = load i32, ptr %7, align 4, !tbaa !8
  %17 = icmp slt i32 %15, %16
  br i1 %17, label %18, label %49

18:                                               ; preds = %14
  %19 = load i32, ptr %12, align 4, !tbaa !8
  %20 = load ptr, ptr %6, align 8, !tbaa !10
  %21 = load i32, ptr %11, align 4, !tbaa !8
  %22 = sext i32 %21 to i64
  %23 = getelementptr inbounds i32, ptr %20, i64 %22
  %24 = load i32, ptr %23, align 4, !tbaa !8
  %25 = icmp slt i32 %19, %24
  br i1 %25, label %26, label %45

26:                                               ; preds = %18
  %27 = load i32, ptr %11, align 4, !tbaa !8
  %28 = load i32, ptr %8, align 4, !tbaa !8
  %29 = icmp ne i32 %27, %28
  br i1 %29, label %30, label %45

30:                                               ; preds = %26
  %31 = load i32, ptr %11, align 4, !tbaa !8
  %32 = load i32, ptr %9, align 4, !tbaa !8
  %33 = icmp ne i32 %31, %32
  br i1 %33, label %34, label %45

34:                                               ; preds = %30
  %35 = load i32, ptr %11, align 4, !tbaa !8
  %36 = load i32, ptr %10, align 4, !tbaa !8
  %37 = icmp ne i32 %35, %36
  br i1 %37, label %38, label %45

38:                                               ; preds = %34
  %39 = load ptr, ptr %6, align 8, !tbaa !10
  %40 = load i32, ptr %11, align 4, !tbaa !8
  %41 = sext i32 %40 to i64
  %42 = getelementptr inbounds i32, ptr %39, i64 %41
  %43 = load i32, ptr %42, align 4, !tbaa !8
  store i32 %43, ptr %12, align 4, !tbaa !8
  %44 = load i32, ptr %11, align 4, !tbaa !8
  store i32 %44, ptr %13, align 4, !tbaa !8
  br label %45

45:                                               ; preds = %38, %34, %30, %26, %18
  br label %46

46:                                               ; preds = %45
  %47 = load i32, ptr %11, align 4, !tbaa !8
  %48 = add nsw i32 %47, 1
  store i32 %48, ptr %11, align 4, !tbaa !8
  br label %14, !llvm.loop !92

49:                                               ; preds = %14
  %50 = load i32, ptr %13, align 4, !tbaa !8
  call void @llvm.lifetime.end.p0(i64 4, ptr %13) #12
  call void @llvm.lifetime.end.p0(i64 4, ptr %12) #12
  call void @llvm.lifetime.end.p0(i64 4, ptr %11) #12
  ret i32 %50
}