; Function Attrs: nofree norecurse nosync nounwind memory(argmem: read) uwtable
define i32 @Gia_ManLatest(ptr noundef readonly captures(none) %0, i32 noundef %1, i32 noundef %2, i32 noundef %3, i32 noundef %4) local_unnamed_addr #13 {
  %6 = icmp sgt i32 %1, 0
  br i1 %6, label %.lr.ph.preheader, label %._crit_edge

.lr.ph.preheader:                                 ; preds = %5
  %7 = zext i32 %4 to i64
  %8 = zext i32 %3 to i64
  %9 = zext i32 %2 to i64
  %wide.trip.count = zext nneg i32 %1 to i64
  br label %.lr.ph

.lr.ph:                                           ; preds = %.lr.ph.preheader, %.lr.ph
  %indvars.iv = phi i64 [ 0, %.lr.ph.preheader ], [ %indvars.iv.next, %.lr.ph ]
  %.025 = phi i32 [ -1, %.lr.ph.preheader ], [ %.1, %.lr.ph ]
  %.01524 = phi i32 [ -1, %.lr.ph.preheader ], [ %.116, %.lr.ph ]
  %10 = getelementptr inbounds nuw i32, ptr %0, i64 %indvars.iv
  %11 = load i32, ptr %10, align 4, !tbaa !11
  %12 = icmp sge i32 %.01524, %11
  %.not = icmp eq i64 %indvars.iv, %9
  %or.cond = or i1 %.not, %12
  %.not19 = icmp eq i64 %indvars.iv, %8
  %or.cond21 = or i1 %.not19, %or.cond
  %.not20 = icmp eq i64 %indvars.iv, %7
  %or.cond22 = or i1 %.not20, %or.cond21
  %.116 = select i1 %or.cond22, i32 %.01524, i32 %11
  %13 = trunc nuw nsw i64 %indvars.iv to i32
  %.1 = select i1 %or.cond22, i32 %.025, i32 %13
  %indvars.iv.next = add nuw nsw i64 %indvars.iv, 1
  %exitcond.not = icmp eq i64 %indvars.iv.next, %wide.trip.count
  br i1 %exitcond.not, label %._crit_edge, label %.lr.ph, !llvm.loop !83

._crit_edge:                                      ; preds = %.lr.ph, %5
  %.0.lcssa = phi i32 [ -1, %5 ], [ %.1, %.lr.ph ]
  ret i32 %.0.lcssa
}